target datalayout = "e-m:e-p270:32:32-p271:32:32-p272:64:64-i64:64-i128:128-f80:128-n8:16:32:64-S128"
target triple = "x86_64-pc-linux-gnu"

%struct.QMetaObject = type { %"struct.QMetaObject::Data" }
%"struct.QMetaObject::Data" = type { %"struct.QMetaObject::SuperData", ptr, ptr, ptr, ptr, ptr, ptr }
%"struct.QMetaObject::SuperData" = type { ptr }

@_ZN10MainWindow16staticMetaObjectE = external global %struct.QMetaObject, align 8

; Function Attrs: mustprogress uwtable
define linkonce_odr noundef ptr @_ZNK11QMetaObject4castEP7QObject(ptr noundef nonnull align 8 dereferenceable(56) %0, ptr noundef %1) #4 comdat align 2 {
  %3 = alloca ptr, align 8
  %4 = alloca ptr, align 8
  store ptr %0, ptr %3, align 8
  store ptr %1, ptr %4, align 8
  %5 = load ptr, ptr %3, align 8
  %6 = load ptr, ptr %4, align 8
  %7 = call noundef ptr @_ZNK11QMetaObject4castEPK7QObject(ptr noundef nonnull align 8 dereferenceable(56) %5, ptr noundef %6)
  ret ptr %7
}

; Function Attrs: mustprogress uwtable
define linkonce_odr noundef ptr @_Z12qobject_castIP10MainWindowET_P7QObject(ptr noundef %0) #4 comdat {
  %2 = alloca ptr, align 8
  store ptr %0, ptr %2, align 8
  %3 = load ptr, ptr %2, align 8
  %4 = call noundef ptr @_ZNK11QMetaObject4castEP7QObject(ptr noundef nonnull align 8 dereferenceable(56) @_ZN10MainWindow16staticMetaObjectE, ptr noundef %3)
  ret ptr %4
}

; Function Attrs: mustprogress uwtable
define void @_ZN15MainApplication9popStatusENS_10StatusInfoE(ptr noundef nonnull align 8 dereferenceable(216) %0, i32 noundef %1) #4 align 2 {
  %3 = alloca ptr, align 8
  %4 = alloca i32, align 4
  %5 = alloca ptr, align 8
  %6 = alloca ptr, align 8
  store ptr %0, ptr %3, align 8
  store i32 %1, ptr %4, align 4
  %7 = load ptr, ptr %3, align 8
  %8 = call noundef ptr @_ZN15MainApplication10mainWindowEv(ptr noundef nonnull align 8 dereferenceable(216) %7)
  %9 = icmp ne ptr %8, null
  br i1 %9, label %10, label %14

10:                                               ; preds = %2
  %11 = call noundef ptr @_ZN15MainApplication10mainWindowEv(ptr noundef nonnull align 8 dereferenceable(216) %7)
  %12 = call noundef ptr @_Z12qobject_castIP10MainWindowET_P7QObject(ptr noundef %11)
  %13 = icmp ne ptr %12, null
  br i1 %13, label %15, label %14

14:                                               ; preds = %10, %2
  br label %38

15:                                               ; preds = %10
  %16 = call noundef ptr @_ZN15MainApplication10mainWindowEv(ptr noundef nonnull align 8 dereferenceable(216) %7)
  %17 = call noundef ptr @_Z12qobject_castIP10MainWindowET_P7QObject(ptr noundef %16)
  store ptr %17, ptr %5, align 8
  %18 = load ptr, ptr %5, align 8
  %19 = call noundef ptr @_ZN10MainWindow9statusBarEv(ptr noundef nonnull align 8 dereferenceable(272) %18)
  %20 = icmp ne ptr %19, null
  br i1 %20, label %22, label %21

21:                                               ; preds = %15
  br label %38

22:                                               ; preds = %15
  %23 = load ptr, ptr %5, align 8
  %24 = call noundef ptr @_ZN10MainWindow9statusBarEv(ptr noundef nonnull align 8 dereferenceable(272) %23)
  store ptr %24, ptr %6, align 8
  %25 = load i32, ptr %4, align 4
  switch i32 %25, label %38 [
    i32 0, label %26
    i32 1, label %28
    i32 2, label %30
    i32 4, label %32
    i32 3, label %34
    i32 5, label %36
  ]

26:                                               ; preds = %22
  %27 = load ptr, ptr %6, align 8
  call void @_ZN13MainStatusBar16popGenericStatusENS_13StatusContextE(ptr noundef nonnull align 8 dereferenceable(512) %27, i32 noundef 4)
  br label %38

28:                                               ; preds = %22
  %29 = load ptr, ptr %6, align 8
  call void @_ZN13MainStatusBar16popGenericStatusENS_13StatusContextE(ptr noundef nonnull align 8 dereferenceable(512) %29, i32 noundef 2)
  br label %38

30:                                               ; preds = %22
  %31 = load ptr, ptr %6, align 8
  call void @_ZN13MainStatusBar16popGenericStatusENS_13StatusContextE(ptr noundef nonnull align 8 dereferenceable(512) %31, i32 noundef 1)
  br label %38

32:                                               ; preds = %22
  %33 = load ptr, ptr %6, align 8
  call void @_ZN13MainStatusBar16popGenericStatusENS_13StatusContextE(ptr noundef nonnull align 8 dereferenceable(512) %33, i32 noundef 3)
  br label %38

34:                                               ; preds = %22
  %35 = load ptr, ptr %6, align 8
  call void @_ZN13MainStatusBar16popGenericStatusENS_13StatusContextE(ptr noundef nonnull align 8 dereferenceable(512) %35, i32 noundef 5)
  br label %38

36:                                               ; preds = %22
  %37 = load ptr, ptr %6, align 8
  call void @_ZN13MainStatusBar16popGenericStatusENS_13StatusContextE(ptr noundef nonnull align 8 dereferenceable(512) %37, i32 noundef 6)
  br label %38

38:                                               ; preds = %36, %34, %32, %30, %28, %26, %22, %21, %14
  ret void
}