; Function Attrs: mustprogress uwtable
define void @_ZN15MainApplication9popStatusENS_10StatusInfoE(ptr nocapture noundef nonnull readnone align 8 dereferenceable(216) %0, i32 noundef %1) local_unnamed_addr #3 align 2 {
  %3 = tail call noundef ptr @_ZN15MainApplication10mainWindowEv(ptr nonnull align 8 poison)
  %.not = icmp eq ptr %3, null
  br i1 %.not, label %15, label %4

4:                                                ; preds = %2
  %5 = tail call noundef ptr @_ZN15MainApplication10mainWindowEv(ptr nonnull align 8 poison)
  %6 = tail call noundef ptr @_ZNK11QMetaObject4castEPK7QObject(ptr noundef nonnull align 8 dereferenceable(56) @_ZN10MainWindow16staticMetaObjectE, ptr noundef %5)
  %.not9 = icmp eq ptr %6, null
  br i1 %.not9, label %15, label %7

7:                                                ; preds = %4
  %8 = tail call noundef ptr @_ZN15MainApplication10mainWindowEv(ptr nonnull align 8 poison)
  %9 = tail call noundef ptr @_ZNK11QMetaObject4castEPK7QObject(ptr noundef nonnull align 8 dereferenceable(56) @_ZN10MainWindow16staticMetaObjectE, ptr noundef %8)
  %10 = tail call noundef ptr @_ZN10MainWindow9statusBarEv(ptr noundef nonnull align 8 dereferenceable(272) %9)
  %.not10 = icmp eq ptr %10, null
  br i1 %.not10, label %15, label %11

11:                                               ; preds = %7
  %12 = tail call noundef ptr @_ZN10MainWindow9statusBarEv(ptr noundef nonnull align 8 dereferenceable(272) %9)
  %13 = icmp ult i32 %1, 6
  br i1 %13, label %switch.lookup, label %15

switch.lookup:                                    ; preds = %11
  %14 = zext nneg i32 %1 to i64
  %switch.gep = getelementptr inbounds [6 x i32], ptr @switch.table._ZN15MainApplication9popStatusENS_10StatusInfoE, i64 0, i64 %14
  %switch.load = load i32, ptr %switch.gep, align 4
  tail call void @_ZN13MainStatusBar16popGenericStatusENS_13StatusContextE(ptr noundef nonnull align 8 dereferenceable(512) %12, i32 noundef %switch.load)
  br label %15

15:                                               ; preds = %11, %switch.lookup, %7, %2, %4
  ret void
}